(dp0
S'gs'
p1
(dp2
S'd'
p3
F25.25
sS'efficiency_curve_type'
p4
S'radware'
p5
sS'efficiency_parameters'
p6
(dp7
S'A'
p8
F5.7020999999999997
sS'C'
p9
F0.0
sS'B'
p10
F4.8349099999999998
sS'E'
p11
F-0.60599999999999998
sS'D'
p12
F6.2001600000000003
sS'G'
p13
F4.5933999999999999
sS'F'
p14
F-0.0053600000000000002
sS'absolute_calibration_absolute_efficiency'
p15
F0.00088999999999999995
sS'absolute_calibration_energy_keV'
p16
F1333.0
ssS'l'
p17
(lp18
I0
aI0
aI0
aI0
aI0
aI0
aI0
asS'L'
p19
F7.5
sS'detector_description'
p20
S'A single Gammasphere crystal.  Absolute efficiency is for 100 detectors from T. Lauritsen et al. PRC 75:064309 (2007).  Relative efficiency curve is for GS+CHICO (aluminum) with a 25 mil Cu absorber on the crystal and a 2 mil Ta absorber on top (gamma traverses Ta first).'
p21
sS'detector_name'
p22
g1
sS'R'
p23
F3.5499999999999998
sS'r'
p24
F0.5
sS'four_pi'
p25
I00
ssS'tig45cl'
p26
(dp27
S'd'
p28
F14.5
sS'efficiency_curve_type'
p29
S'radware'
p30
sS'efficiency_parameters'
p31
(dp32
S'A'
p33
F3.2954642999999999
sS'C'
p34
F0.0
sS'B'
p35
F0.33492537999999999
sS'E'
p36
F-0.5419001
sS'D'
p37
F2.3479793
sS'G'
p38
F15.0
sS'F'
p39
F-0.018637585000000002
sS'absolute_calibration_absolute_efficiency'
p40
F0.0051650000000000003
sS'absolute_calibration_energy_keV'
p41
F1333.0
ssS'l'
p42
(lp43
I0
aI0
aI0
aI0
aI0
aI0
aI0
asS'L'
p44
F9.0
sS'detector_description'
p45
S'A cylindrical single-crystal approximation of a Tigress clover.  The inner inactive core represents the air gap between actual crystals, not an n-core.  The efficiency curve from P. Voss is for a crystal in the 45 degree ring.'
p46
sS'detector_name'
p47
S'tig45cl'
p48
sS'R'
p49
F5.6600000000000001
sS'r'
p50
F1.1100000000000001
sS'four_pi'
p51
I00
ssS'tigcrystal'
p52
(dp53
S'd'
p54
F14.5
sS'efficiency_curve_type'
p55
S'radware'
p56
sS'efficiency_parameters'
p57
(dp58
S'A'
p59
F3.2954642999999999
sS'C'
p60
F0.0
sS'B'
p61
F0.33492537999999999
sS'E'
p62
F-0.5419001
sS'D'
p63
F2.3479793
sS'G'
p64
F15.0
sS'F'
p65
F-0.018637585000000002
sS'absolute_calibration_absolute_efficiency'
p66
F0.001291
sS'absolute_calibration_energy_keV'
p67
F1333.0
ssS'l'
p68
(lp69
I0
aI0
aI0
aI0
aI0
aI0
aI0
asS'L'
p70
F9.0
sS'detector_description'
p71
S"One of four (assumed identical) crystals in the Tigress clover at 14.5 cm from target.  The inactive core is assumed to have a 0.5 cm radius.  The radius of a cylinder of area equal to that of a true Tigress segment is used.  Note that the quadrants of the clover do not point radially to the target, and this has been neglected.  Efficiency is based on P. Voss's calibration for a 45 degree clover."
p72
sS'detector_name'
p73
S'tigcrystal'
p74
sS'R'
p75
F2.8849999999999998
sS'r'
p76
F0.5
sS'four_pi'
p77
I00
ssS'tig90cl'
p78
(dp79
g28
F14.5
sg29
g30
sg31
(dp80
g33
F2.8301227
sg34
F0.0
sg35
F0.61786543999999999
sg36
F-0.48218113000000001
sg37
F2.2340713000000001
sg38
F85.0
sg39
F-0.091448090999999995
sg40
F0.0053499999999999997
sg41
F1333.0
ssg42
(lp81
I0
aI0
aI0
aI0
aI0
aI0
aI0
asg44
F9.0
sg45
S'A cylindrical single-crystal approximation of a Tigress clover.  The inner inactive core represents the air gap between actual crystals, not an n-core.  The efficiency curve from P. Voss is for a crystal in the 90 degree ring.'
p82
sg47
S'tig90cl'
p83
sg49
F5.6600000000000001
sg50
F1.1100000000000001
sg51
I00
ssS'tig90clclose'
p84
(dp85
S'd'
p86
F11.0
sS'efficiency_curve_type'
p87
S'radware'
p88
sS'efficiency_parameters'
p89
(dp90
S'A'
p91
F2.8301227
sS'C'
p92
F0.0
sS'B'
p93
F0.61786543999999999
sS'E'
p94
F-0.48218113000000001
sS'D'
p95
F2.2340713000000001
sS'G'
p96
F85.0
sS'F'
p97
F-0.091448090999999995
sS'absolute_calibration_absolute_efficiency'
p98
F0.0092960000000000004
sS'absolute_calibration_energy_keV'
p99
F1333.0
ssS'l'
p100
(lp101
I0
aI0
aI0
aI0
aI0
aI0
aI0
asS'L'
p102
F9.0
sS'detector_description'
p103
S'A Tigress clover at 90 degrees and 11 cm from target.  Refer to type tig90cl.  The efficiency is adjusted from that of a clover at 14.5 cm from target by correcting for the change in solid angle.'
p104
sS'detector_name'
p105
S'tig90clclose'
p106
sS'R'
p107
F5.6600000000000001
sS'r'
p108
F1.1100000000000001
sS'four_pi'
p109
I00
ssS'tig45clclose'
p110
(dp111
g54
F11.0
sg55
g56
sg57
(dp112
g59
F3.2954642999999999
sg60
F0.0
sg61
F0.33492537999999999
sg62
F-0.5419001
sg63
F2.3479793
sg64
F15.0
sg65
F-0.018637585000000002
sg66
F0.0089747000000000004
sg67
F1333.0
ssg68
(lp113
I0
aI0
aI0
aI0
aI0
aI0
aI0
asg70
F9.0
sg71
S'Refer to tig45cl type.  The efficiency has been adjusted from that of a clover at 14.5cm from target only by correcting for the change in solid angle.'
p114
sg73
S'tig45clclose'
p115
sg75
F5.6600000000000001
sg76
F1.1100000000000001
sg77
I00
ssS'mbaddback'
p116
(dp117
S'd'
p118
F12.5
sS'efficiency_curve_type'
p119
S'miniball'
p120
sS'efficiency_parameters'
p121
(dp122
S'absolute_calibration_energy_keV'
p123
F1333.0
sS'absolute_calibration_absolute_efficiency'
p124
F0.0033330000000000004
sS'a1'
p125
F544.005
sS'a0'
p126
F-817.04700000000003
sS'a3'
p127
F12.6549
sS'a2'
p128
F-126.749
sS'a4'
p129
F-0.46290599999999998
ssS'L'
p130
F7.7999999999999998
sS'l'
p131
(lp132
I0
aI0
aI0
aI0
aI0
aI0
aI0
asS'detector_description'
p133
S'A Miniball crystal in add-back mode.  Geometric quantities from M. Albers, efficiency curve from N. Warr.'
p134
sS'detector_name'
p135
S'mbaddback'
p136
sS'R'
p137
F3.5
sS'r'
p138
F0.10000000000000001
sS'four_pi'
p139
I00
ssS'tigcrystalclose'
p140
(dp141
g54
F11.0
sg55
g56
sg57
(dp142
g59
F3.2954642999999999
sg60
F0.0
sg61
F0.33492537999999999
sg62
F-0.5419001
sg63
F2.3479793
sg64
F15.0
sg65
F-0.018637585000000002
sg66
F0.0022399999999999998
sg67
F1333.0
ssg68
(lp143
I0
aI0
aI0
aI0
aI0
aI0
aI0
asg70
F9.0
sg71
S"Refer to type tigcrystal.  A Tigress crystal (quadrant of a clover) at 11cm from target.  The efficiency has been derived from P. Voss's calibration of a clover at 45 degrees and 14.5 cm, adjusting only for the change in solid angle."
p144
sg73
S'tigcrystalclose'
p145
sg75
F2.8849999999999998
sg76
F0.5
sg77
I00
ssS'miniball'
p146
(dp147
S'd'
p148
F12.5
sS'efficiency_curve_type'
p149
S'miniball'
p150
sS'efficiency_parameters'
p151
(dp152
S'absolute_calibration_energy_keV'
p153
F1333.0
sS'absolute_calibration_absolute_efficiency'
p154
F0.0033330000000000004
sS'a1'
p155
F724.58199999999999
sS'a0'
p156
F-1077.3
sS'a3'
p157
F17.710100000000001
sS'a2'
p158
F-172.58000000000001
sS'a4'
p159
F-0.66825699999999999
ssS'l'
p160
(lp161
I0
aI0
aI0
aI0
aI0
aI0
aI0
asS'L'
p162
F7.7999999999999998
sS'detector_description'
p163
S'A Miniball crystal.  Geometric quantities from M. Albers, efficiency curve from N. Warr.'
p164
sS'detector_name'
p165
S'miniball'
p166
sS'R'
p167
F3.5
sS'r'
p168
F0.10000000000000001
sS'four_pi'
p169
I00
ss.
